(lp0
ccopy_reg
_reconstructor
p1
(csklearn.linear_model.base
LinearRegression
p2
c__builtin__
object
p3
Ntp4
Rp5
(dp6
S'normalize'
p7
I00
sS'n_jobs'
p8
I1
sS'rank_'
p9
I1
sS'fit_intercept'
p10
I01
sS'_residues'
p11
cnumpy.core.multiarray
_reconstruct
p12
(cnumpy
ndarray
p13
(I0
tp14
S'b'
p15
tp16
Rp17
(I1
(L1L
tp18
cnumpy
dtype
p19
(S'f8'
p20
I0
I1
tp21
Rp22
(I3
S'<'
p23
NNNI-1
I-1
I0
tp24
bI00
S'Q\xea\xf0\x92\xa9\xef{:'
p25
tp26
bsS'singular_'
p27
g12
(g13
(I0
tp28
g15
tp29
Rp30
(I1
(L1L
tp31
g22
I00
S'\xf6\xba.Nw#@@'
p32
tp33
bsS'coef_'
p34
g12
(g13
(I0
tp35
g15
tp36
Rp37
(I1
(L1L
L1L
tp38
g22
I00
S'\xbe\xe5z\xdf\x15d\r\xc0'
p39
tp40
bsS'_sklearn_version'
p41
S'0.18'
p42
sS'copy_X'
p43
I01
sS'intercept_'
p44
g12
(g13
(I0
tp45
g15
tp46
Rp47
(I1
(L1L
tp48
g22
I00
S'\x01\x00\x00\x00\x00\x00$@'
p49
tp50
bsba.