(lp0
ccopy_reg
_reconstructor
p1
(csklearn.feature_extraction.text
TfidfVectorizer
p2
c__builtin__
object
p3
Ntp4
Rp5
(dp6
S'decode_error'
p7
Vstrict
p8
sS'lowercase'
p9
I01
sS'stop_words'
p10
S'english'
p11
sS'vocabulary'
p12
NsS'tokenizer'
p13
c__main__
normalize
p14
sS'encoding'
p15
Vutf-8
p16
sS'token_pattern'
p17
V(?u)\u005cb\u005cw\u005cw+\u005cb
p18
sS'analyzer'
p19
Vword
p20
sS'binary'
p21
I00
sS'ngram_range'
p22
(I1
I1
tp23
sS'_sklearn_version'
p24
S'0.18.1'
p25
sS'max_df'
p26
F1.0
sS'min_df'
p27
I1
sS'max_features'
p28
NsS'input'
p29
Vcontent
p30
sS'_tfidf'
p31
g1
(csklearn.feature_extraction.text
TfidfTransformer
p32
g3
Ntp33
Rp34
(dp35
S'use_idf'
p36
I01
sS'smooth_idf'
p37
I01
sg24
g25
sS'sublinear_tf'
p38
I00
sS'norm'
p39
Vl2
p40
sbsS'strip_accents'
p41
NsS'dtype'
p42
cnumpy
int64
p43
sS'preprocessor'
p44
Nsba.